	.file	"t.cpp"
	.section .rdata,"dr"
__ZStL19piecewise_construct:
	.space 1
.lcomm __ZStL8__ioinit,1,1
	.def	___main;	.scl	2;	.type	32;	.endef
LC0:
	.ascii "t\0"
	.text
	.globl	_main
	.def	_main;	.scl	2;	.type	32;	.endef
_main:
LFB1445:
	.cfi_startproc
	pushl	%ebp
	.cfi_def_cfa_offset 8
	.cfi_offset 5, -8
	movl	%esp, %ebp
	.cfi_def_cfa_register 5
	andl	$-16, %esp
	subl	$16, %esp
	call	___main
	movl	$LC0, 4(%esp)
	movl	$__ZSt4cout, (%esp)
	call	__ZStlsISt11char_traitsIcEERSt13basic_ostreamIcT_ES5_PKc
	movl	$0, %eax
	leave
	.cfi_restore 5
	.cfi_def_cfa 4, 4
	ret
	.cfi_endproc
LFE1445:
	.def	___tcf_0;	.scl	3;	.type	32;	.endef
___tcf_0:
LFB1873:
	.cfi_startproc
	pushl	%ebp
	.cfi_def_cfa_offset 8
	.cfi_offset 5, -8
	movl	%esp, %ebp
	.cfi_def_cfa_register 5
	subl	$8, %esp
	movl	$__ZStL8__ioinit, %ecx
	call	__ZNSt8ios_base4InitD1Ev
	leave
	.cfi_restore 5
	.cfi_def_cfa 4, 4
	ret
	.cfi_endproc
LFE1873:
	.def	__Z41__static_initialization_and_destruction_0ii;	.scl	3;	.type	32;	.endef
__Z41__static_initialization_and_destruction_0ii:
LFB1872:
	.cfi_startproc
	pushl	%ebp
	.cfi_def_cfa_offset 8
	.cfi_offset 5, -8
	movl	%esp, %ebp
	.cfi_def_cfa_register 5
	subl	$24, %esp
	cmpl	$1, 8(%ebp)
	jne	L6
	cmpl	$65535, 12(%ebp)
	jne	L6
	movl	$__ZStL8__ioinit, %ecx
	call	__ZNSt8ios_base4InitC1Ev
	movl	$___tcf_0, (%esp)
	call	_atexit
L6:
	nop
	leave
	.cfi_restore 5
	.cfi_def_cfa 4, 4
	ret
	.cfi_endproc
LFE1872:
	.def	__GLOBAL__sub_I_main;	.scl	3;	.type	32;	.endef
__GLOBAL__sub_I_main:
LFB1874:
	.cfi_startproc
	pushl	%ebp
	.cfi_def_cfa_offset 8
	.cfi_offset 5, -8
	movl	%esp, %ebp
	.cfi_def_cfa_register 5
	subl	$24, %esp
	movl	$65535, 4(%esp)
	movl	$1, (%esp)
	call	__Z41__static_initialization_and_destruction_0ii
	leave
	.cfi_restore 5
	.cfi_def_cfa 4, 4
	ret
	.cfi_endproc
LFE1874:
	.section	.ctors,"w"
	.align 4
	.long	__GLOBAL__sub_I_main
	.ident	"GCC: (MinGW.org GCC-6.3.0-1) 6.3.0"
	.def	__ZStlsISt11char_traitsIcEERSt13basic_ostreamIcT_ES5_PKc;	.scl	2;	.type	32;	.endef
	.def	__ZNSt8ios_base4InitD1Ev;	.scl	2;	.type	32;	.endef
	.def	__ZNSt8ios_base4InitC1Ev;	.scl	2;	.type	32;	.endef
	.def	_atexit;	.scl	2;	.type	32;	.endef
